target datalayout = "e-m:e-p270:32:32-p271:32:32-p272:64:64-i64:64-i128:128-f80:128-n8:16:32:64-S128"
target triple = "x86_64-pc-linux-gnu"

%"struct.Luau::FValue" = type { i8, i8, ptr, ptr }
%struct.lua_TValue = type { %union.Value, [1 x i32], i32 }
%union.Value = type { ptr }

@_ZN5FFlag22LuauVector2ConstructorE = external global %"struct.Luau::FValue", align 8

; Function Attrs: alwaysinline mustprogress nounwind uwtable
define linkonce_odr dso_local noundef zeroext i1 @_ZNK4Luau6FValueIbEcvbEv(ptr noundef nonnull align 8 dereferenceable(24) %0) #16 comdat align 2 {
  %2 = alloca ptr, align 8
  store ptr %0, ptr %2, align 8, !tbaa !88
  %3 = load ptr, ptr %2, align 8
  %4 = getelementptr inbounds nuw %"struct.Luau::FValue", ptr %3, i32 0, i32 0
  %5 = load i8, ptr %4, align 8, !tbaa !90, !range !92, !noundef !93
  %6 = trunc i8 %5 to i1
  ret i1 %6
}

; Function Attrs: mustprogress uwtable
define internal noundef i32 @_ZL12luauF_vectorP9lua_StateP10lua_TValueS2_iS2_i(ptr noundef %0, ptr noundef %1, ptr noundef %2, i32 noundef %3, ptr noundef %4, i32 noundef %5) #3 {
  %7 = alloca i32, align 4
  %8 = alloca ptr, align 8
  %9 = alloca ptr, align 8
  %10 = alloca ptr, align 8
  %11 = alloca i32, align 4
  %12 = alloca ptr, align 8
  %13 = alloca i32, align 4
  %14 = alloca float, align 4
  %15 = alloca float, align 4
  %16 = alloca float, align 4
  %17 = alloca i32, align 4
  %18 = alloca ptr, align 8
  %19 = alloca ptr, align 8
  %20 = alloca double, align 8
  %21 = alloca double, align 8
  %22 = alloca double, align 8
  %23 = alloca ptr, align 8
  %24 = alloca ptr, align 8
  store ptr %0, ptr %8, align 8, !tbaa !4
  store ptr %1, ptr %9, align 8, !tbaa !9
  store ptr %2, ptr %10, align 8, !tbaa !9
  store i32 %3, ptr %11, align 4, !tbaa !11
  store ptr %4, ptr %12, align 8, !tbaa !9
  store i32 %5, ptr %13, align 4, !tbaa !11
  %25 = call noundef zeroext i1 @_ZNK4Luau6FValueIbEcvbEv(ptr noundef nonnull align 8 dereferenceable(24) @_ZN5FFlag22LuauVector2ConstructorE)
  br i1 %25, label %26, label %84

26:                                               ; preds = %6
  %27 = load i32, ptr %13, align 4, !tbaa !11
  %28 = icmp sge i32 %27, 2
  br i1 %28, label %29, label %83

29:                                               ; preds = %26
  %30 = load i32, ptr %11, align 4, !tbaa !11
  %31 = icmp sle i32 %30, 1
  br i1 %31, label %32, label %83

32:                                               ; preds = %29
  %33 = load ptr, ptr %10, align 8, !tbaa !9
  %34 = getelementptr inbounds nuw %struct.lua_TValue, ptr %33, i32 0, i32 2
  %35 = load i32, ptr %34, align 4, !tbaa !13
  %36 = icmp eq i32 %35, 3
  br i1 %36, label %37, label %83

37:                                               ; preds = %32
  %38 = load ptr, ptr %12, align 8, !tbaa !9
  %39 = getelementptr inbounds nuw %struct.lua_TValue, ptr %38, i32 0, i32 2
  %40 = load i32, ptr %39, align 4, !tbaa !13
  %41 = icmp eq i32 %40, 3
  br i1 %41, label %42, label %83

42:                                               ; preds = %37
  call void @llvm.lifetime.start.p0(i64 4, ptr %14) #17
  %43 = load ptr, ptr %10, align 8, !tbaa !9
  %44 = getelementptr inbounds nuw %struct.lua_TValue, ptr %43, i32 0, i32 0
  %45 = load double, ptr %44, align 8, !tbaa !15
  %46 = fptrunc double %45 to float
  store float %46, ptr %14, align 4, !tbaa !70
  call void @llvm.lifetime.start.p0(i64 4, ptr %15) #17
  %47 = load ptr, ptr %12, align 8, !tbaa !9
  %48 = getelementptr inbounds nuw %struct.lua_TValue, ptr %47, i32 0, i32 0
  %49 = load double, ptr %48, align 8, !tbaa !15
  %50 = fptrunc double %49 to float
  store float %50, ptr %15, align 4, !tbaa !70
  call void @llvm.lifetime.start.p0(i64 4, ptr %16) #17
  store float 0.000000e+00, ptr %16, align 4, !tbaa !70
  %51 = load i32, ptr %13, align 4, !tbaa !11
  %52 = icmp sge i32 %51, 3
  br i1 %52, label %53, label %66

53:                                               ; preds = %42
  %54 = load ptr, ptr %12, align 8, !tbaa !9
  %55 = getelementptr inbounds %struct.lua_TValue, ptr %54, i64 1
  %56 = getelementptr inbounds nuw %struct.lua_TValue, ptr %55, i32 0, i32 2
  %57 = load i32, ptr %56, align 4, !tbaa !13
  %58 = icmp eq i32 %57, 3
  br i1 %58, label %60, label %59

59:                                               ; preds = %53
  store i32 -1, ptr %7, align 4
  store i32 1, ptr %17, align 4
  br label %82

60:                                               ; preds = %53
  %61 = load ptr, ptr %12, align 8, !tbaa !9
  %62 = getelementptr inbounds %struct.lua_TValue, ptr %61, i64 1
  %63 = getelementptr inbounds nuw %struct.lua_TValue, ptr %62, i32 0, i32 0
  %64 = load double, ptr %63, align 8, !tbaa !15
  %65 = fptrunc double %64 to float
  store float %65, ptr %16, align 4, !tbaa !70
  br label %66

66:                                               ; preds = %60, %42
  call void @llvm.lifetime.start.p0(i64 8, ptr %18) #17
  %67 = load ptr, ptr %9, align 8, !tbaa !9
  store ptr %67, ptr %18, align 8, !tbaa !9
  call void @llvm.lifetime.start.p0(i64 8, ptr %19) #17
  %68 = load ptr, ptr %18, align 8, !tbaa !9
  %69 = getelementptr inbounds nuw %struct.lua_TValue, ptr %68, i32 0, i32 0
  %70 = getelementptr inbounds [2 x float], ptr %69, i64 0, i64 0
  store ptr %70, ptr %19, align 8, !tbaa !72
  %71 = load float, ptr %14, align 4, !tbaa !70
  %72 = load ptr, ptr %19, align 8, !tbaa !72
  %73 = getelementptr inbounds float, ptr %72, i64 0
  store float %71, ptr %73, align 4, !tbaa !70
  %74 = load float, ptr %15, align 4, !tbaa !70
  %75 = load ptr, ptr %19, align 8, !tbaa !72
  %76 = getelementptr inbounds float, ptr %75, i64 1
  store float %74, ptr %76, align 4, !tbaa !70
  %77 = load float, ptr %16, align 4, !tbaa !70
  %78 = load ptr, ptr %19, align 8, !tbaa !72
  %79 = getelementptr inbounds float, ptr %78, i64 2
  store float %77, ptr %79, align 4, !tbaa !70
  %80 = load ptr, ptr %18, align 8, !tbaa !9
  %81 = getelementptr inbounds nuw %struct.lua_TValue, ptr %80, i32 0, i32 2
  store i32 4, ptr %81, align 4, !tbaa !13
  call void @llvm.lifetime.end.p0(i64 8, ptr %19) #17
  call void @llvm.lifetime.end.p0(i64 8, ptr %18) #17
  store i32 1, ptr %7, align 4
  store i32 1, ptr %17, align 4
  br label %82

82:                                               ; preds = %66, %59
  call void @llvm.lifetime.end.p0(i64 4, ptr %16) #17
  call void @llvm.lifetime.end.p0(i64 4, ptr %15) #17
  call void @llvm.lifetime.end.p0(i64 4, ptr %14) #17
  br label %137

83:                                               ; preds = %37, %32, %29, %26
  br label %136

84:                                               ; preds = %6
  %85 = load i32, ptr %13, align 4, !tbaa !11
  %86 = icmp sge i32 %85, 3
  br i1 %86, label %87, label %135

87:                                               ; preds = %84
  %88 = load i32, ptr %11, align 4, !tbaa !11
  %89 = icmp sle i32 %88, 1
  br i1 %89, label %90, label %135

90:                                               ; preds = %87
  %91 = load ptr, ptr %10, align 8, !tbaa !9
  %92 = getelementptr inbounds nuw %struct.lua_TValue, ptr %91, i32 0, i32 2
  %93 = load i32, ptr %92, align 4, !tbaa !13
  %94 = icmp eq i32 %93, 3
  br i1 %94, label %95, label %135

95:                                               ; preds = %90
  %96 = load ptr, ptr %12, align 8, !tbaa !9
  %97 = getelementptr inbounds nuw %struct.lua_TValue, ptr %96, i32 0, i32 2
  %98 = load i32, ptr %97, align 4, !tbaa !13
  %99 = icmp eq i32 %98, 3
  br i1 %99, label %100, label %135

100:                                              ; preds = %95
  %101 = load ptr, ptr %12, align 8, !tbaa !9
  %102 = getelementptr inbounds %struct.lua_TValue, ptr %101, i64 1
  %103 = getelementptr inbounds nuw %struct.lua_TValue, ptr %102, i32 0, i32 2
  %104 = load i32, ptr %103, align 4, !tbaa !13
  %105 = icmp eq i32 %104, 3
  br i1 %105, label %106, label %135

106:                                              ; preds = %100
  call void @llvm.lifetime.start.p0(i64 8, ptr %20) #17
  %107 = load ptr, ptr %10, align 8, !tbaa !9
  %108 = getelementptr inbounds nuw %struct.lua_TValue, ptr %107, i32 0, i32 0
  %109 = load double, ptr %108, align 8, !tbaa !15
  store double %109, ptr %20, align 8, !tbaa !16
  call void @llvm.lifetime.start.p0(i64 8, ptr %21) #17
  %110 = load ptr, ptr %12, align 8, !tbaa !9
  %111 = getelementptr inbounds nuw %struct.lua_TValue, ptr %110, i32 0, i32 0
  %112 = load double, ptr %111, align 8, !tbaa !15
  store double %112, ptr %21, align 8, !tbaa !16
  call void @llvm.lifetime.start.p0(i64 8, ptr %22) #17
  %113 = load ptr, ptr %12, align 8, !tbaa !9
  %114 = getelementptr inbounds %struct.lua_TValue, ptr %113, i64 1
  %115 = getelementptr inbounds nuw %struct.lua_TValue, ptr %114, i32 0, i32 0
  %116 = load double, ptr %115, align 8, !tbaa !15
  store double %116, ptr %22, align 8, !tbaa !16
  call void @llvm.lifetime.start.p0(i64 8, ptr %23) #17
  %117 = load ptr, ptr %9, align 8, !tbaa !9
  store ptr %117, ptr %23, align 8, !tbaa !9
  call void @llvm.lifetime.start.p0(i64 8, ptr %24) #17
  %118 = load ptr, ptr %23, align 8, !tbaa !9
  %119 = getelementptr inbounds nuw %struct.lua_TValue, ptr %118, i32 0, i32 0
  %120 = getelementptr inbounds [2 x float], ptr %119, i64 0, i64 0
  store ptr %120, ptr %24, align 8, !tbaa !72
  %121 = load double, ptr %20, align 8, !tbaa !16
  %122 = fptrunc double %121 to float
  %123 = load ptr, ptr %24, align 8, !tbaa !72
  %124 = getelementptr inbounds float, ptr %123, i64 0
  store float %122, ptr %124, align 4, !tbaa !70
  %125 = load double, ptr %21, align 8, !tbaa !16
  %126 = fptrunc double %125 to float
  %127 = load ptr, ptr %24, align 8, !tbaa !72
  %128 = getelementptr inbounds float, ptr %127, i64 1
  store float %126, ptr %128, align 4, !tbaa !70
  %129 = load double, ptr %22, align 8, !tbaa !16
  %130 = fptrunc double %129 to float
  %131 = load ptr, ptr %24, align 8, !tbaa !72
  %132 = getelementptr inbounds float, ptr %131, i64 2
  store float %130, ptr %132, align 4, !tbaa !70
  %133 = load ptr, ptr %23, align 8, !tbaa !9
  %134 = getelementptr inbounds nuw %struct.lua_TValue, ptr %133, i32 0, i32 2
  store i32 4, ptr %134, align 4, !tbaa !13
  call void @llvm.lifetime.end.p0(i64 8, ptr %24) #17
  call void @llvm.lifetime.end.p0(i64 8, ptr %23) #17
  store i32 1, ptr %7, align 4
  store i32 1, ptr %17, align 4
  call void @llvm.lifetime.end.p0(i64 8, ptr %22) #17
  call void @llvm.lifetime.end.p0(i64 8, ptr %21) #17
  call void @llvm.lifetime.end.p0(i64 8, ptr %20) #17
  br label %137

135:                                              ; preds = %100, %95, %90, %87, %84
  br label %136

136:                                              ; preds = %135, %83
  store i32 -1, ptr %7, align 4
  br label %137

137:                                              ; preds = %136, %106, %82
  %138 = load i32, ptr %7, align 4
  ret i32 %138
}