; Function Attrs: mustprogress nofree norecurse nosync nounwind willreturn memory(read, argmem: readwrite, inaccessiblemem: none) uwtable
define internal noundef range(i32 -1, 2) i32 @_ZL12luauF_vectorP9lua_StateP10lua_TValueS2_iS2_i(ptr readnone captures(none) %0, ptr noundef writeonly captures(none) %1, ptr noundef readonly captures(none) %2, i32 noundef %3, ptr noundef readonly captures(none) %4, i32 noundef %5) #6 {
  %7 = load i8, ptr @_ZN5FFlag22LuauVector2ConstructorE, align 8, !tbaa !65, !range !69, !noundef !70
  %8 = trunc nuw i8 %7 to i1
  %9 = icmp slt i32 %3, 2
  br i1 %8, label %10, label %36

10:                                               ; preds = %6
  %11 = icmp sgt i32 %5, 1
  %or.cond = and i1 %9, %11
  br i1 %or.cond, label %12, label %61

12:                                               ; preds = %10
  %13 = getelementptr inbounds nuw i8, ptr %2, i64 12
  %14 = load i32, ptr %13, align 4, !tbaa !4
  %15 = icmp eq i32 %14, 3
  br i1 %15, label %16, label %61

16:                                               ; preds = %12
  %17 = getelementptr inbounds nuw i8, ptr %4, i64 12
  %18 = load i32, ptr %17, align 4, !tbaa !4
  %19 = icmp eq i32 %18, 3
  br i1 %19, label %20, label %61

20:                                               ; preds = %16
  %21 = load double, ptr %2, align 8, !tbaa !9
  %22 = fptrunc double %21 to float
  %23 = load double, ptr %4, align 8, !tbaa !9
  %24 = fptrunc double %23 to float
  %25 = icmp samesign ugt i32 %5, 2
  br i1 %25, label %26, label %34

26:                                               ; preds = %20
  %27 = getelementptr inbounds nuw i8, ptr %4, i64 28
  %28 = load i32, ptr %27, align 4, !tbaa !4
  %29 = icmp eq i32 %28, 3
  br i1 %29, label %30, label %61

30:                                               ; preds = %26
  %31 = getelementptr inbounds nuw i8, ptr %4, i64 16
  %32 = load double, ptr %31, align 8, !tbaa !9
  %33 = fptrunc double %32 to float
  br label %34

34:                                               ; preds = %30, %20
  %.038 = phi float [ %33, %30 ], [ 0.000000e+00, %20 ]
  store float %22, ptr %1, align 4, !tbaa !51
  %35 = getelementptr inbounds nuw i8, ptr %1, i64 4
  store float %24, ptr %35, align 4, !tbaa !51
  br label %.sink.split

36:                                               ; preds = %6
  %37 = icmp sgt i32 %5, 2
  %or.cond3 = and i1 %9, %37
  br i1 %or.cond3, label %38, label %61

38:                                               ; preds = %36
  %39 = getelementptr inbounds nuw i8, ptr %2, i64 12
  %40 = load i32, ptr %39, align 4, !tbaa !4
  %41 = icmp eq i32 %40, 3
  br i1 %41, label %42, label %61

42:                                               ; preds = %38
  %43 = getelementptr inbounds nuw i8, ptr %4, i64 12
  %44 = load i32, ptr %43, align 4, !tbaa !4
  %45 = icmp eq i32 %44, 3
  br i1 %45, label %46, label %61

46:                                               ; preds = %42
  %47 = getelementptr inbounds nuw i8, ptr %4, i64 28
  %48 = load i32, ptr %47, align 4, !tbaa !4
  %49 = icmp eq i32 %48, 3
  br i1 %49, label %50, label %61

50:                                               ; preds = %46
  %51 = getelementptr inbounds nuw i8, ptr %4, i64 16
  %52 = load double, ptr %2, align 8, !tbaa !9
  %53 = load double, ptr %4, align 8, !tbaa !9
  %54 = load double, ptr %51, align 8, !tbaa !9
  %55 = fptrunc double %52 to float
  store float %55, ptr %1, align 4, !tbaa !51
  %56 = fptrunc double %53 to float
  %57 = getelementptr inbounds nuw i8, ptr %1, i64 4
  store float %56, ptr %57, align 4, !tbaa !51
  %58 = fptrunc double %54 to float
  br label %.sink.split

.sink.split:                                      ; preds = %50, %34
  %.038.sink = phi float [ %.038, %34 ], [ %58, %50 ]
  %59 = getelementptr inbounds nuw i8, ptr %1, i64 8
  store float %.038.sink, ptr %59, align 4, !tbaa !51
  %60 = getelementptr inbounds nuw i8, ptr %1, i64 12
  store i32 4, ptr %60, align 4, !tbaa !4
  br label %61

61:                                               ; preds = %.sink.split, %16, %12, %10, %46, %42, %38, %36, %26
  %.1 = phi i32 [ -1, %26 ], [ -1, %36 ], [ -1, %38 ], [ -1, %42 ], [ -1, %46 ], [ -1, %10 ], [ -1, %12 ], [ -1, %16 ], [ 1, %.sink.split ]
  ret i32 %.1
}